target datalayout = "e-m:e-p270:32:32-p271:32:32-p272:64:64-i64:64-i128:128-f80:128-n8:16:32:64-S128"
target triple = "x86_64-pc-linux-gnu"

%struct.FFStream = type { %struct.AVStream, ptr, i32, ptr, i32, ptr, i32, %struct.anon.1, i32, i32, %struct.FFFrac, ptr, ptr, i32, i32, i64, i64, i32, i32, i32, i64, i64, i64, i32, i64, i64, i64, i32, i32, [17 x i64], [17 x i8], [17 x i64], i64, i8, i8, %struct.AVRational, %struct.AVProbeData, ptr, i64, i32, i32, i32, ptr, i32, i32, i64, i64, ptr, %struct.AVRational }
%struct.AVStream = type { ptr, i32, i32, ptr, ptr, %struct.AVRational, i64, i64, i64, i32, i32, %struct.AVRational, ptr, %struct.AVRational, %struct.AVPacket, i32, %struct.AVRational, i32 }
%struct.AVPacket = type { ptr, i64, i64, ptr, i32, i32, i32, ptr, i32, i64, i64, ptr, ptr, %struct.AVRational }
%struct.anon.1 = type { ptr, i32 }
%struct.FFFrac = type { i64, i64, i64 }
%struct.AVProbeData = type { ptr, ptr, i32, ptr }
%struct.AVRational = type { i32, i32 }
%struct.AVFormatContext = type { ptr, ptr, ptr, ptr, ptr, i32, i32, ptr, i32, ptr, i32, ptr, ptr, i64, i64, i64, i32, i32, i32, i64, i64, ptr, i32, i32, ptr, i32, i32, i32, i32, ptr, i64, i32, i32, %struct.AVIOInterruptCB, i32, i32, i32, i32, i64, i32, i32, i32, i32, i32, i32, i32, i32, i32, i32, i32, i32, i64, i32, i32, i32, i32, i32, ptr, ptr, ptr, ptr, i32, ptr, ptr, ptr, ptr, i32, ptr, ptr, i64, ptr, ptr, ptr, i64 }
%struct.AVIOInterruptCB = type { ptr, ptr }
%struct.AVCodecContext = type { ptr, i32, i32, ptr, i32, i32, ptr, ptr, ptr, i64, i32, i32, ptr, i32, %struct.AVRational, %struct.AVRational, %struct.AVRational, i32, i32, i32, i32, i32, %struct.AVRational, i32, i32, i32, i32, i32, i32, i32, i32, i32, i32, i32, ptr, ptr, i32, float, float, float, float, float, float, float, float, float, i32, i32, i32, i32, i32, i32, i32, i32, i32, i32, i32, i32, ptr, ptr, ptr, i32, i32, i32, i32, i32, i32, i32, i32, i32, i32, %struct.AVChannelLayout, i32, i32, i32, i32, i32, i32, i32, i32, ptr, i32, i32, i32, float, float, i32, i32, i32, i32, i32, ptr, i64, i64, float, float, i32, i32, ptr, ptr, i32, i32, i32, i32, i32, ptr, ptr, ptr, ptr, i32, i32, [8 x i64], i32, i32, i32, i32, i32, i32, i32, ptr, ptr, i32, i32, i32, i32, i32, i32, i32, i32, i32, i32, ptr, ptr, i32, i32, ptr, ptr, ptr, ptr, i32, i32, i64, i32, i32, i64, ptr, i64, ptr, i32, ptr, i32 }
%struct.AVChannelLayout = type { i32, i32, %union.anon.2, ptr }
%union.anon.2 = type { i64 }
%struct.AVCodecParameters = type { i32, i32, i32, ptr, i32, ptr, i32, i32, i64, i32, i32, i32, i32, i32, i32, %struct.AVRational, %struct.AVRational, i32, i32, i32, i32, i32, i32, i32, %struct.AVChannelLayout, i32, i32, i32, i32, i32, i32 }

; Function Attrs: alwaysinline nounwind uwtable
define internal ptr @ffstream(ptr noundef %0) #3 {
  %2 = alloca ptr, align 8
  store ptr %0, ptr %2, align 8, !tbaa !4
  %3 = load ptr, ptr %2, align 8, !tbaa !4
  ret ptr %3
}

; Function Attrs: nounwind uwtable
define internal i32 @update_stream_avctx(ptr noundef %0) #0 {
  %2 = alloca i32, align 4
  %3 = alloca ptr, align 8
  %4 = alloca i32, align 4
  %5 = alloca i32, align 4
  %6 = alloca i32, align 4
  %7 = alloca ptr, align 8
  %8 = alloca ptr, align 8
  store ptr %0, ptr %3, align 8, !tbaa !46
  call void @llvm.lifetime.start.p0(i64 4, ptr %4) #13
  call void @llvm.lifetime.start.p0(i64 4, ptr %5) #13
  store i32 0, ptr %5, align 4, !tbaa !50
  br label %9

9:                                                ; preds = %80, %1
  %10 = load i32, ptr %5, align 4, !tbaa !50
  %11 = load ptr, ptr %3, align 8, !tbaa !46
  %12 = getelementptr inbounds nuw %struct.AVFormatContext, ptr %11, i32 0, i32 6
  %13 = load i32, ptr %12, align 4, !tbaa !103
  %14 = icmp ult i32 %10, %13
  br i1 %14, label %16, label %15

15:                                               ; preds = %9
  store i32 2, ptr %6, align 4
  br label %83

16:                                               ; preds = %9
  call void @llvm.lifetime.start.p0(i64 8, ptr %7) #13
  %17 = load ptr, ptr %3, align 8, !tbaa !46
  %18 = getelementptr inbounds nuw %struct.AVFormatContext, ptr %17, i32 0, i32 7
  %19 = load ptr, ptr %18, align 8, !tbaa !104
  %20 = load i32, ptr %5, align 4, !tbaa !50
  %21 = zext i32 %20 to i64
  %22 = getelementptr inbounds nuw ptr, ptr %19, i64 %21
  %23 = load ptr, ptr %22, align 8, !tbaa !4
  store ptr %23, ptr %7, align 8, !tbaa !4
  call void @llvm.lifetime.start.p0(i64 8, ptr %8) #13
  %24 = load ptr, ptr %7, align 8, !tbaa !4
  %25 = call ptr @ffstream(ptr noundef %24)
  store ptr %25, ptr %8, align 8, !tbaa !11
  %26 = load ptr, ptr %8, align 8, !tbaa !11
  %27 = getelementptr inbounds nuw %struct.FFStream, ptr %26, i32 0, i32 8
  %28 = load i32, ptr %27, align 8, !tbaa !105
  %29 = icmp ne i32 %28, 0
  br i1 %29, label %31, label %30

30:                                               ; preds = %16
  store i32 4, ptr %6, align 4
  br label %77

31:                                               ; preds = %16
  %32 = load ptr, ptr %8, align 8, !tbaa !11
  %33 = getelementptr inbounds nuw %struct.FFStream, ptr %32, i32 0, i32 42
  %34 = load ptr, ptr %33, align 8, !tbaa !106
  %35 = icmp ne ptr %34, null
  br i1 %35, label %36, label %54

36:                                               ; preds = %31
  %37 = load ptr, ptr %8, align 8, !tbaa !11
  %38 = getelementptr inbounds nuw %struct.FFStream, ptr %37, i32 0, i32 5
  %39 = load ptr, ptr %38, align 8, !tbaa !107
  %40 = getelementptr inbounds nuw %struct.AVCodecContext, ptr %39, i32 0, i32 4
  %41 = load i32, ptr %40, align 8, !tbaa !108
  %42 = load ptr, ptr %7, align 8, !tbaa !4
  %43 = getelementptr inbounds nuw %struct.AVStream, ptr %42, i32 0, i32 3
  %44 = load ptr, ptr %43, align 8, !tbaa !118
  %45 = getelementptr inbounds nuw %struct.AVCodecParameters, ptr %44, i32 0, i32 1
  %46 = load i32, ptr %45, align 4, !tbaa !119
  %47 = icmp ne i32 %41, %46
  br i1 %47, label %48, label %54

48:                                               ; preds = %36
  %49 = load ptr, ptr %8, align 8, !tbaa !11
  %50 = getelementptr inbounds nuw %struct.FFStream, ptr %49, i32 0, i32 42
  %51 = load ptr, ptr %50, align 8, !tbaa !106
  call void @av_parser_close(ptr noundef %51)
  %52 = load ptr, ptr %8, align 8, !tbaa !11
  %53 = getelementptr inbounds nuw %struct.FFStream, ptr %52, i32 0, i32 42
  store ptr null, ptr %53, align 8, !tbaa !106
  br label %54

54:                                               ; preds = %48, %36, %31
  %55 = load ptr, ptr %8, align 8, !tbaa !11
  %56 = getelementptr inbounds nuw %struct.FFStream, ptr %55, i32 0, i32 5
  %57 = load ptr, ptr %56, align 8, !tbaa !107
  %58 = load ptr, ptr %7, align 8, !tbaa !4
  %59 = getelementptr inbounds nuw %struct.AVStream, ptr %58, i32 0, i32 3
  %60 = load ptr, ptr %59, align 8, !tbaa !118
  %61 = call i32 @avcodec_parameters_to_context(ptr noundef %57, ptr noundef %60)
  store i32 %61, ptr %4, align 4, !tbaa !50
  %62 = load i32, ptr %4, align 4, !tbaa !50
  %63 = icmp slt i32 %62, 0
  br i1 %63, label %64, label %66

64:                                               ; preds = %54
  %65 = load i32, ptr %4, align 4, !tbaa !50
  store i32 %65, ptr %2, align 4
  store i32 1, ptr %6, align 4
  br label %77

66:                                               ; preds = %54
  %67 = load ptr, ptr %8, align 8, !tbaa !11
  %68 = getelementptr inbounds nuw %struct.FFStream, ptr %67, i32 0, i32 5
  %69 = load ptr, ptr %68, align 8, !tbaa !107
  %70 = getelementptr inbounds nuw %struct.AVCodecContext, ptr %69, i32 0, i32 4
  %71 = load i32, ptr %70, align 8, !tbaa !108
  %72 = call ptr @avcodec_descriptor_get(i32 noundef %71)
  %73 = load ptr, ptr %8, align 8, !tbaa !11
  %74 = getelementptr inbounds nuw %struct.FFStream, ptr %73, i32 0, i32 47
  store ptr %72, ptr %74, align 8, !tbaa !121
  %75 = load ptr, ptr %8, align 8, !tbaa !11
  %76 = getelementptr inbounds nuw %struct.FFStream, ptr %75, i32 0, i32 8
  store i32 0, ptr %76, align 8, !tbaa !105
  store i32 0, ptr %6, align 4
  br label %77

77:                                               ; preds = %66, %64, %30
  call void @llvm.lifetime.end.p0(i64 8, ptr %8) #13
  call void @llvm.lifetime.end.p0(i64 8, ptr %7) #13
  %78 = load i32, ptr %6, align 4
  switch i32 %78, label %83 [
    i32 0, label %79
    i32 4, label %80
  ]

79:                                               ; preds = %77
  br label %80

80:                                               ; preds = %79, %77
  %81 = load i32, ptr %5, align 4, !tbaa !50
  %82 = add i32 %81, 1
  store i32 %82, ptr %5, align 4, !tbaa !50
  br label %9, !llvm.loop !122

83:                                               ; preds = %77, %15
  call void @llvm.lifetime.end.p0(i64 4, ptr %5) #13
  %84 = load i32, ptr %6, align 4
  switch i32 %84, label %86 [
    i32 2, label %85
  ]

85:                                               ; preds = %83
  store i32 0, ptr %2, align 4
  store i32 1, ptr %6, align 4
  br label %86

86:                                               ; preds = %85, %83
  call void @llvm.lifetime.end.p0(i64 4, ptr %4) #13
  %87 = load i32, ptr %2, align 4
  ret i32 %87
}