; Function Attrs: nounwind uwtable
define internal fastcc void @update_stream_avctx(ptr noundef nonnull readonly captures(none) %0) unnamed_addr #1 {
  %2 = getelementptr inbounds nuw i8, ptr %0, i64 44
  %3 = load i32, ptr %2, align 4, !tbaa !87
  %.not2832.not = icmp eq i32 %3, 0
  br i1 %.not2832.not, label %._crit_edge, label %.lr.ph

.lr.ph:                                           ; preds = %1
  %4 = getelementptr inbounds nuw i8, ptr %0, i64 48
  br label %5

5:                                                ; preds = %.lr.ph, %38
  %6 = phi i32 [ %3, %.lr.ph ], [ %39, %38 ]
  %indvars.iv = phi i64 [ 0, %.lr.ph ], [ %indvars.iv.next, %38 ]
  %7 = load ptr, ptr %4, align 8, !tbaa !88
  %8 = getelementptr inbounds nuw ptr, ptr %7, i64 %indvars.iv
  %9 = load ptr, ptr %8, align 8, !tbaa !89
  %10 = getelementptr inbounds nuw i8, ptr %9, i64 280
  %11 = load i32, ptr %10, align 8, !tbaa !91
  %.not = icmp eq i32 %11, 0
  br i1 %.not, label %38, label %12

12:                                               ; preds = %5
  %13 = getelementptr inbounds nuw i8, ptr %9, i64 816
  %14 = load ptr, ptr %13, align 8, !tbaa !92
  %.not26 = icmp eq ptr %14, null
  br i1 %.not26, label %25, label %15

15:                                               ; preds = %12
  %16 = getelementptr inbounds nuw i8, ptr %9, i64 248
  %17 = load ptr, ptr %16, align 8, !tbaa !93
  %18 = getelementptr inbounds nuw i8, ptr %17, i64 24
  %19 = load i32, ptr %18, align 8, !tbaa !94
  %20 = getelementptr inbounds nuw i8, ptr %9, i64 16
  %21 = load ptr, ptr %20, align 8, !tbaa !104
  %22 = getelementptr inbounds nuw i8, ptr %21, i64 4
  %23 = load i32, ptr %22, align 4, !tbaa !105
  %.not27 = icmp eq i32 %19, %23
  br i1 %.not27, label %25, label %24

24:                                               ; preds = %15
  tail call void @av_parser_close(ptr noundef nonnull %14) #15
  store ptr null, ptr %13, align 8, !tbaa !92
  br label %25

25:                                               ; preds = %24, %15, %12
  %26 = getelementptr inbounds nuw i8, ptr %9, i64 248
  %27 = load ptr, ptr %26, align 8, !tbaa !93
  %28 = getelementptr inbounds nuw i8, ptr %9, i64 16
  %29 = load ptr, ptr %28, align 8, !tbaa !104
  %30 = tail call i32 @avcodec_parameters_to_context(ptr noundef %27, ptr noundef %29) #15
  %31 = icmp slt i32 %30, 0
  br i1 %31, label %._crit_edge, label %32

32:                                               ; preds = %25
  %33 = load ptr, ptr %26, align 8, !tbaa !93
  %34 = getelementptr inbounds nuw i8, ptr %33, i64 24
  %35 = load i32, ptr %34, align 8, !tbaa !94
  %36 = tail call ptr @avcodec_descriptor_get(i32 noundef %35) #15
  %37 = getelementptr inbounds nuw i8, ptr %9, i64 848
  store ptr %36, ptr %37, align 8, !tbaa !107
  store i32 0, ptr %10, align 8, !tbaa !91
  %.pre = load i32, ptr %2, align 4, !tbaa !87
  br label %38

38:                                               ; preds = %32, %5
  %39 = phi i32 [ %.pre, %32 ], [ %6, %5 ]
  %indvars.iv.next = add nuw nsw i64 %indvars.iv, 1
  %40 = zext i32 %39 to i64
  %.not28 = icmp samesign ult i64 %indvars.iv.next, %40
  br i1 %.not28, label %5, label %._crit_edge, !llvm.loop !108

._crit_edge:                                      ; preds = %38, %25, %1
  ret void
}